(dp0
Vmessages
p1
(lp2
VERROR   501.tex:151 \u2014 LaTeX Error: File `sphere' not found.
p3
aVERROR   501.tex:258 \u2014 LaTeX Error: File `Hessian' not found.
p4
aVERROR   501.tex:262 \u2014 LaTeX Error: File `Eval' not found.
p5
aVERROR   501.tex:266 \u2014 LaTeX Error: File `Final' not found.
p6
asVfiles_with_guttermarks
p7
c__builtin__
set
p8
((lp9
V/Users/Alex/Documents/AlexAtanasov14.github.io/Files/./501.tex
p10
atp11
Rp12
s.